target datalayout = "e-m:e-p270:32:32-p271:32:32-p272:64:64-i64:64-i128:128-f80:128-n8:16:32:64-S128"
target triple = "x86_64-pc-linux-gnu"

%"class.std::__cxx11::basic_string" = type { %"struct.std::__cxx11::basic_string<char>::_Alloc_hider", i64, %union.anon }
%"struct.std::__cxx11::basic_string<char>::_Alloc_hider" = type { ptr }
%union.anon = type { i64, [8 x i8] }
%"class.Imf_3_4::IStream" = type { ptr, %"class.std::__cxx11::basic_string" }
%class.MemoryMappedIStream = type { %"class.Imf_3_4::IStream", ptr, i64, i64 }

@.str.8 = private unnamed_addr constant [24 x i8] c"Unexpected end of file.\00", align 1
@_ZTIN7Iex_3_48InputExcE = external constant ptr
@.str.12 = private unnamed_addr constant [26 x i8] c"Reading past end of file.\00", align 1

; Function Attrs: mustprogress uwtable
define dso_local noundef zeroext i1 @_ZN19MemoryMappedIStream4readEPci(ptr noundef nonnull align 8 dereferenceable(64) %0, ptr noundef %1, i32 noundef %2) unnamed_addr #6 align 2 personality ptr @__gxx_personality_v0 {
  %4 = alloca ptr, align 8
  %5 = alloca ptr, align 8
  %6 = alloca i32, align 4
  %7 = alloca ptr, align 8
  %8 = alloca i32, align 4
  store ptr %0, ptr %4, align 8, !tbaa !31
  store ptr %1, ptr %5, align 8, !tbaa !11
  store i32 %2, ptr %6, align 4, !tbaa !13
  %9 = load ptr, ptr %4, align 8
  %10 = getelementptr inbounds nuw %class.MemoryMappedIStream, ptr %9, i32 0, i32 3
  %11 = load i64, ptr %10, align 8, !tbaa !38
  %12 = getelementptr inbounds nuw %class.MemoryMappedIStream, ptr %9, i32 0, i32 2
  %13 = load i64, ptr %12, align 8, !tbaa !37
  %14 = icmp uge i64 %11, %13
  br i1 %14, label %15, label %22

15:                                               ; preds = %3
  %16 = call ptr @__cxa_allocate_exception(i64 72) #3
  invoke void @_ZN7Iex_3_48InputExcC1EPKc(ptr noundef nonnull align 8 dereferenceable(72) %16, ptr noundef @.str.8)
          to label %17 unwind label %18

17:                                               ; preds = %15
  call void @__cxa_throw(ptr %16, ptr @_ZTIN7Iex_3_48InputExcE, ptr @_ZN7Iex_3_48InputExcD1Ev) #24
  unreachable

18:                                               ; preds = %15
  %19 = landingpad { ptr, i32 }
          cleanup
  %20 = extractvalue { ptr, i32 } %19, 0
  store ptr %20, ptr %7, align 8
  %21 = extractvalue { ptr, i32 } %19, 1
  store i32 %21, ptr %8, align 4
  call void @__cxa_free_exception(ptr %16) #3
  br label %57

22:                                               ; preds = %3
  %23 = getelementptr inbounds nuw %class.MemoryMappedIStream, ptr %9, i32 0, i32 3
  %24 = load i64, ptr %23, align 8, !tbaa !38
  %25 = load i32, ptr %6, align 4, !tbaa !13
  %26 = sext i32 %25 to i64
  %27 = add i64 %24, %26
  %28 = getelementptr inbounds nuw %class.MemoryMappedIStream, ptr %9, i32 0, i32 2
  %29 = load i64, ptr %28, align 8, !tbaa !37
  %30 = icmp ugt i64 %27, %29
  br i1 %30, label %31, label %38

31:                                               ; preds = %22
  %32 = call ptr @__cxa_allocate_exception(i64 72) #3
  invoke void @_ZN7Iex_3_48InputExcC1EPKc(ptr noundef nonnull align 8 dereferenceable(72) %32, ptr noundef @.str.12)
          to label %33 unwind label %34

33:                                               ; preds = %31
  call void @__cxa_throw(ptr %32, ptr @_ZTIN7Iex_3_48InputExcE, ptr @_ZN7Iex_3_48InputExcD1Ev) #24
  unreachable

34:                                               ; preds = %31
  %35 = landingpad { ptr, i32 }
          cleanup
  %36 = extractvalue { ptr, i32 } %35, 0
  store ptr %36, ptr %7, align 8
  %37 = extractvalue { ptr, i32 } %35, 1
  store i32 %37, ptr %8, align 4
  call void @__cxa_free_exception(ptr %32) #3
  br label %57

38:                                               ; preds = %22
  %39 = load ptr, ptr %5, align 8, !tbaa !11
  %40 = getelementptr inbounds nuw %class.MemoryMappedIStream, ptr %9, i32 0, i32 1
  %41 = load ptr, ptr %40, align 8, !tbaa !35
  %42 = getelementptr inbounds nuw %class.MemoryMappedIStream, ptr %9, i32 0, i32 3
  %43 = load i64, ptr %42, align 8, !tbaa !38
  %44 = getelementptr inbounds nuw i8, ptr %41, i64 %43
  %45 = load i32, ptr %6, align 4, !tbaa !13
  %46 = sext i32 %45 to i64
  call void @llvm.memcpy.p0.p0.i64(ptr align 1 %39, ptr align 1 %44, i64 %46, i1 false)
  %47 = load i32, ptr %6, align 4, !tbaa !13
  %48 = sext i32 %47 to i64
  %49 = getelementptr inbounds nuw %class.MemoryMappedIStream, ptr %9, i32 0, i32 3
  %50 = load i64, ptr %49, align 8, !tbaa !38
  %51 = add i64 %50, %48
  store i64 %51, ptr %49, align 8, !tbaa !38
  %52 = getelementptr inbounds nuw %class.MemoryMappedIStream, ptr %9, i32 0, i32 3
  %53 = load i64, ptr %52, align 8, !tbaa !38
  %54 = getelementptr inbounds nuw %class.MemoryMappedIStream, ptr %9, i32 0, i32 2
  %55 = load i64, ptr %54, align 8, !tbaa !37
  %56 = icmp ult i64 %53, %55
  ret i1 %56

57:                                               ; preds = %34, %18
  %58 = load ptr, ptr %7, align 8
  %59 = load i32, ptr %8, align 4
  %60 = insertvalue { ptr, i32 } poison, ptr %58, 0
  %61 = insertvalue { ptr, i32 } %60, i32 %59, 1
  resume { ptr, i32 } %61
}