; Function Attrs: mustprogress uwtable
define dso_local noundef zeroext i1 @_ZN19MemoryMappedIStream4readEPci(ptr noundef nonnull align 8 captures(none) dereferenceable(64) %0, ptr noundef writeonly captures(none) %1, i32 noundef %2) unnamed_addr #8 align 2 personality ptr @__gxx_personality_v0 {
  %4 = getelementptr inbounds nuw i8, ptr %0, i64 56
  %5 = load i64, ptr %4, align 8, !tbaa !56
  %6 = getelementptr inbounds nuw i8, ptr %0, i64 48
  %7 = load i64, ptr %6, align 8, !tbaa !19
  %.not = icmp ult i64 %5, %7
  br i1 %.not, label %13, label %8

8:                                                ; preds = %3
  %9 = tail call ptr @__cxa_allocate_exception(i64 72) #36
  invoke void @_ZN7Iex_3_48InputExcC1EPKc(ptr noundef nonnull align 8 dereferenceable(72) %9, ptr noundef nonnull @.str.8)
          to label %10 unwind label %11

10:                                               ; preds = %8
  tail call void @__cxa_throw(ptr nonnull %9, ptr nonnull @_ZTIN7Iex_3_48InputExcE, ptr nonnull @_ZN7Iex_3_48InputExcD1Ev) #37
  unreachable

11:                                               ; preds = %8
  %12 = landingpad { ptr, i32 }
          cleanup
  br label %30

13:                                               ; preds = %3
  %14 = sext i32 %2 to i64
  %15 = add i64 %5, %14
  %16 = icmp ugt i64 %15, %7
  br i1 %16, label %17, label %22

17:                                               ; preds = %13
  %18 = tail call ptr @__cxa_allocate_exception(i64 72) #36
  invoke void @_ZN7Iex_3_48InputExcC1EPKc(ptr noundef nonnull align 8 dereferenceable(72) %18, ptr noundef nonnull @.str.12)
          to label %19 unwind label %20

19:                                               ; preds = %17
  tail call void @__cxa_throw(ptr nonnull %18, ptr nonnull @_ZTIN7Iex_3_48InputExcE, ptr nonnull @_ZN7Iex_3_48InputExcD1Ev) #37
  unreachable

20:                                               ; preds = %17
  %21 = landingpad { ptr, i32 }
          cleanup
  br label %30

22:                                               ; preds = %13
  %23 = getelementptr inbounds nuw i8, ptr %0, i64 40
  %24 = load ptr, ptr %23, align 8, !tbaa !17
  %25 = getelementptr inbounds nuw i8, ptr %24, i64 %5
  tail call void @llvm.memcpy.p0.p0.i64(ptr align 1 %1, ptr align 1 %25, i64 %14, i1 false)
  %26 = load i64, ptr %4, align 8, !tbaa !56
  %27 = add i64 %26, %14
  store i64 %27, ptr %4, align 8, !tbaa !56
  %28 = load i64, ptr %6, align 8, !tbaa !19
  %29 = icmp ult i64 %27, %28
  ret i1 %29

30:                                               ; preds = %20, %11
  %.sink = phi ptr [ %18, %20 ], [ %9, %11 ]
  %.pn = phi { ptr, i32 } [ %21, %20 ], [ %12, %11 ]
  tail call void @__cxa_free_exception(ptr nonnull %.sink) #36
  resume { ptr, i32 } %.pn
}